target datalayout = "e-m:e-p270:32:32-p271:32:32-p272:64:64-i64:64-i128:128-f80:128-n8:16:32:64-S128"
target triple = "x86_64-pc-linux-gnu"

%struct.H5O_linfo_t = type { i8, i8, i64, i64, i64, i64, i64 }
%struct.H5O_copy_t = type { i8, i8, i8, i8, i8, i8, i8, ptr, i32, i32, ptr, ptr, i8, ptr, ptr, ptr, ptr, ptr, i64 }
%struct.H5O_linfo_postcopy_ud_t = type { ptr, ptr, ptr, ptr }
%struct.H5O_loc_t = type { ptr, i64, i8 }

@H5O_init_g = external global i8, align 1
@H5_libterm_g = external global i8, align 1
@.str.1 = private unnamed_addr constant [102 x i8] c"generated/home/dtcxzyw/WorkSpace/Projects/compilers/llvm-opt-benchmark/bench/hdf5/hdf5/src/H5Olinfo.c\00", align 1
@H5E_SYM_g = external global i64, align 8
@__func__.H5O__linfo_post_copy_file = private unnamed_addr constant [26 x i8] c"H5O__linfo_post_copy_file\00", align 1
@H5E_CANTNEXT_g = external global i64, align 8
@.str.11 = private unnamed_addr constant [27 x i8] c"error iterating over links\00", align 1

; Function Attrs: nounwind uwtable
define internal i32 @H5O__linfo_post_copy_file(ptr noundef %0, ptr noundef %1, ptr noundef %2, ptr noundef %3, ptr noundef %4, ptr noundef %5) #0 {
  %7 = alloca i32, align 4
  %8 = alloca ptr, align 8
  %9 = alloca ptr, align 8
  %10 = alloca ptr, align 8
  %11 = alloca ptr, align 8
  %12 = alloca ptr, align 8
  %13 = alloca ptr, align 8
  %14 = alloca ptr, align 8
  %15 = alloca ptr, align 8
  %16 = alloca i32, align 4
  %17 = alloca i8, align 1
  %18 = alloca %struct.H5O_linfo_postcopy_ud_t, align 8
  %19 = alloca i32, align 4
  store ptr %0, ptr %8, align 8, !tbaa !54
  store ptr %1, ptr %9, align 8, !tbaa !21
  store ptr %2, ptr %10, align 8, !tbaa !54
  store ptr %3, ptr %11, align 8, !tbaa !21
  store ptr %4, ptr %12, align 8, !tbaa !12
  store ptr %5, ptr %13, align 8, !tbaa !41
  call void @llvm.lifetime.start.p0(i64 8, ptr %14) #6
  %20 = load ptr, ptr %9, align 8, !tbaa !21
  store ptr %20, ptr %14, align 8, !tbaa !18
  call void @llvm.lifetime.start.p0(i64 8, ptr %15) #6
  %21 = load ptr, ptr %11, align 8, !tbaa !21
  store ptr %21, ptr %15, align 8, !tbaa !18
  call void @llvm.lifetime.start.p0(i64 4, ptr %16) #6
  store i32 0, ptr %16, align 4, !tbaa !10
  call void @llvm.lifetime.start.p0(i64 1, ptr %17) #6
  store i8 0, ptr %17, align 1, !tbaa !22
  %22 = load i8, ptr @H5O_init_g, align 1, !tbaa !22, !range !24, !noundef !25
  %23 = trunc i8 %22 to i1
  br i1 %23, label %28, label %24

24:                                               ; preds = %6
  %25 = load i8, ptr @H5_libterm_g, align 1, !tbaa !22, !range !24, !noundef !25
  %26 = trunc i8 %25 to i1
  %27 = xor i1 %26, true
  br label %28

28:                                               ; preds = %24, %6
  %29 = phi i1 [ true, %6 ], [ %27, %24 ]
  %30 = xor i1 %29, true
  %31 = xor i1 %30, true
  %32 = zext i1 %31 to i32
  %33 = sext i32 %32 to i64
  %34 = call i64 @llvm.expect.i64(i64 %33, i64 1)
  %35 = icmp ne i64 %34, 0
  br i1 %35, label %36, label %98

36:                                               ; preds = %28
  %37 = load ptr, ptr %13, align 8, !tbaa !41
  %38 = getelementptr inbounds nuw %struct.H5O_copy_t, ptr %37, i32 0, i32 9
  %39 = load i32, ptr %38, align 4, !tbaa !45
  %40 = icmp sge i32 %39, 0
  br i1 %40, label %41, label %53

41:                                               ; preds = %36
  %42 = load ptr, ptr %13, align 8, !tbaa !41
  %43 = getelementptr inbounds nuw %struct.H5O_copy_t, ptr %42, i32 0, i32 8
  %44 = load i32, ptr %43, align 8, !tbaa !49
  %45 = load ptr, ptr %13, align 8, !tbaa !41
  %46 = getelementptr inbounds nuw %struct.H5O_copy_t, ptr %45, i32 0, i32 9
  %47 = load i32, ptr %46, align 4, !tbaa !45
  %48 = icmp sge i32 %44, %47
  br i1 %48, label %49, label %53

49:                                               ; preds = %41
  br label %50

50:                                               ; preds = %49
  store i32 0, ptr %16, align 4, !tbaa !10
  br label %97

51:                                               ; No predecessors!
  br label %52

52:                                               ; preds = %51
  br label %53

53:                                               ; preds = %52, %41, %36
  %54 = load ptr, ptr %14, align 8, !tbaa !18
  %55 = getelementptr inbounds nuw %struct.H5O_linfo_t, ptr %54, i32 0, i32 5
  %56 = load i64, ptr %55, align 8, !tbaa !36
  %57 = icmp ne i64 %56, -1
  br i1 %57, label %58, label %96

58:                                               ; preds = %53
  call void @llvm.lifetime.start.p0(i64 32, ptr %18) #6
  %59 = load ptr, ptr %8, align 8, !tbaa !54
  %60 = getelementptr inbounds nuw %struct.H5O_linfo_postcopy_ud_t, ptr %18, i32 0, i32 0
  store ptr %59, ptr %60, align 8, !tbaa !56
  %61 = load ptr, ptr %10, align 8, !tbaa !54
  %62 = getelementptr inbounds nuw %struct.H5O_linfo_postcopy_ud_t, ptr %18, i32 0, i32 1
  store ptr %61, ptr %62, align 8, !tbaa !58
  %63 = load ptr, ptr %15, align 8, !tbaa !18
  %64 = getelementptr inbounds nuw %struct.H5O_linfo_postcopy_ud_t, ptr %18, i32 0, i32 2
  store ptr %63, ptr %64, align 8, !tbaa !59
  %65 = load ptr, ptr %13, align 8, !tbaa !41
  %66 = getelementptr inbounds nuw %struct.H5O_linfo_postcopy_ud_t, ptr %18, i32 0, i32 3
  store ptr %65, ptr %66, align 8, !tbaa !60
  %67 = load ptr, ptr %8, align 8, !tbaa !54
  %68 = getelementptr inbounds nuw %struct.H5O_loc_t, ptr %67, i32 0, i32 0
  %69 = load ptr, ptr %68, align 8, !tbaa !61
  %70 = load ptr, ptr %14, align 8, !tbaa !18
  %71 = call i32 @H5G__dense_iterate(ptr noundef %69, ptr noundef %70, i32 noundef 0, i32 noundef 2, i64 noundef 0, ptr noundef null, ptr noundef @H5O__linfo_post_copy_file_cb, ptr noundef %18)
  %72 = icmp slt i32 %71, 0
  br i1 %72, label %73, label %92

73:                                               ; preds = %58
  br label %74

74:                                               ; preds = %73
  br label %75

75:                                               ; preds = %74
  br label %76

76:                                               ; preds = %75
  %77 = load i64, ptr @H5E_SYM_g, align 8, !tbaa !14
  %78 = load i64, ptr @H5E_CANTNEXT_g, align 8, !tbaa !14
  %79 = call i32 (ptr, ptr, i32, i64, i64, ptr, ...) @H5E_printf_stack(ptr noundef @.str.1, ptr noundef @__func__.H5O__linfo_post_copy_file, i32 noundef 509, i64 noundef %77, i64 noundef %78, ptr noundef @.str.11)
  br label %80

80:                                               ; preds = %76
  br label %81

81:                                               ; preds = %80
  store i8 1, ptr %17, align 1, !tbaa !22
  %82 = load i8, ptr %17, align 1, !tbaa !22, !range !24, !noundef !25
  %83 = trunc i8 %82 to i1
  %84 = zext i1 %83 to i8
  store i8 %84, ptr %17, align 1, !tbaa !22
  br label %85

85:                                               ; preds = %81
  br label %86

86:                                               ; preds = %85
  br label %87

87:                                               ; preds = %86
  store i32 -1, ptr %16, align 4, !tbaa !10
  store i32 4, ptr %19, align 4
  br label %93

88:                                               ; No predecessors!
  br label %89

89:                                               ; preds = %88
  br label %90

90:                                               ; preds = %89
  br label %91

91:                                               ; preds = %90
  br label %92

92:                                               ; preds = %91, %58
  store i32 0, ptr %19, align 4
  br label %93

93:                                               ; preds = %87, %92
  call void @llvm.lifetime.end.p0(i64 32, ptr %18) #6
  %94 = load i32, ptr %19, align 4
  switch i32 %94, label %100 [
    i32 0, label %95
    i32 4, label %97
  ]

95:                                               ; preds = %93
  br label %96

96:                                               ; preds = %95, %53
  br label %97

97:                                               ; preds = %96, %93, %50
  br label %98

98:                                               ; preds = %97, %28
  %99 = load i32, ptr %16, align 4, !tbaa !10
  store i32 %99, ptr %7, align 4
  store i32 1, ptr %19, align 4
  br label %100

100:                                              ; preds = %98, %93
  call void @llvm.lifetime.end.p0(i64 1, ptr %17) #6
  call void @llvm.lifetime.end.p0(i64 4, ptr %16) #6
  call void @llvm.lifetime.end.p0(i64 8, ptr %15) #6
  call void @llvm.lifetime.end.p0(i64 8, ptr %14) #6
  %101 = load i32, ptr %7, align 4
  ret i32 %101
}