; Function Attrs: nounwind uwtable
define internal range(i32 -1, 1) i32 @H5O__linfo_post_copy_file(ptr noundef %0, ptr noundef %1, ptr noundef %2, ptr noundef %3, ptr readnone captures(none) %4, ptr noundef %5) #0 {
  %7 = alloca %struct.H5O_linfo_postcopy_ud_t, align 8
  %8 = load i8, ptr @H5O_init_g, align 1, !tbaa !3, !range !7, !noundef !8
  %9 = trunc nuw i8 %8 to i1
  %10 = load i8, ptr @H5_libterm_g, align 1, !range !7
  %11 = trunc nuw i8 %10 to i1
  %12 = xor i1 %11, true
  %13 = select i1 %9, i1 true, i1 %12
  br i1 %13, label %14, label %36, !prof !9

14:                                               ; preds = %6
  %15 = getelementptr inbounds nuw i8, ptr %5, i64 20
  %16 = load i32, ptr %15, align 4, !tbaa !28
  %17 = icmp sgt i32 %16, -1
  br i1 %17, label %18, label %21

18:                                               ; preds = %14
  %19 = getelementptr inbounds nuw i8, ptr %5, i64 16
  %20 = load i32, ptr %19, align 8, !tbaa !35
  %.not = icmp slt i32 %20, %16
  br i1 %.not, label %21, label %36

21:                                               ; preds = %18, %14
  %22 = getelementptr inbounds nuw i8, ptr %1, i64 32
  %23 = load i64, ptr %22, align 8, !tbaa !25
  %.not18 = icmp eq i64 %23, -1
  br i1 %.not18, label %36, label %24

24:                                               ; preds = %21
  call void @llvm.lifetime.start.p0(i64 32, ptr nonnull %7) #7
  store ptr %0, ptr %7, align 8, !tbaa !40
  %25 = getelementptr inbounds nuw i8, ptr %7, i64 8
  store ptr %2, ptr %25, align 8, !tbaa !45
  %26 = getelementptr inbounds nuw i8, ptr %7, i64 16
  store ptr %3, ptr %26, align 8, !tbaa !46
  %27 = getelementptr inbounds nuw i8, ptr %7, i64 24
  store ptr %5, ptr %27, align 8, !tbaa !47
  %28 = load ptr, ptr %0, align 8, !tbaa !48
  %29 = call i32 @H5G__dense_iterate(ptr noundef %28, ptr noundef nonnull %1, i32 noundef 0, i32 noundef 2, i64 noundef 0, ptr noundef null, ptr noundef nonnull @H5O__linfo_post_copy_file_cb, ptr noundef nonnull %7) #7
  %30 = icmp slt i32 %29, 0
  br i1 %30, label %31, label %35

31:                                               ; preds = %24
  %32 = load i64, ptr @H5E_SYM_g, align 8, !tbaa !10
  %33 = load i64, ptr @H5E_CANTNEXT_g, align 8, !tbaa !10
  %34 = call i32 (ptr, ptr, i32, i64, i64, ptr, ...) @H5E_printf_stack(ptr noundef nonnull @.str.1, ptr noundef nonnull @__func__.H5O__linfo_post_copy_file, i32 noundef 509, i64 noundef %32, i64 noundef %33, ptr noundef nonnull @.str.11) #7
  br label %35

35:                                               ; preds = %24, %31
  %.1 = phi i32 [ -1, %31 ], [ 0, %24 ]
  call void @llvm.lifetime.end.p0(i64 32, ptr nonnull %7) #7
  br label %36

36:                                               ; preds = %6, %21, %18, %35
  %.015 = phi i32 [ %.1, %35 ], [ 0, %21 ], [ 0, %6 ], [ 0, %18 ]
  ret i32 %.015
}